target datalayout = "e-m:e-p270:32:32-p271:32:32-p272:64:64-i64:64-i128:128-f80:128-n8:16:32:64-S128"
target triple = "x86_64-pc-linux-gnu"

%struct.ArHosekSkyModelState = type { [11 x [9 x double]], [11 x double], double, double, [11 x double], [11 x double], double, double }

; Function Attrs: nounwind uwtable
define dso_local double @ArHosekSkyModel_GetRadianceInternal(ptr noundef %0, double noundef %1, double noundef %2) #0 {
  %4 = alloca ptr, align 8
  %5 = alloca double, align 8
  %6 = alloca double, align 8
  %7 = alloca double, align 8
  %8 = alloca double, align 8
  %9 = alloca double, align 8
  %10 = alloca double, align 8
  store ptr %0, ptr %4, align 8, !tbaa !4
  store double %1, ptr %5, align 8, !tbaa !9
  store double %2, ptr %6, align 8, !tbaa !9
  call void @llvm.lifetime.start.p0(i64 8, ptr %7) #5
  %11 = load ptr, ptr %4, align 8, !tbaa !4
  %12 = getelementptr inbounds double, ptr %11, i64 4
  %13 = load double, ptr %12, align 8, !tbaa !9
  %14 = load double, ptr %6, align 8, !tbaa !9
  %15 = fmul double %13, %14
  %16 = call double @exp(double noundef %15) #5, !tbaa !11
  store double %16, ptr %7, align 8, !tbaa !9
  call void @llvm.lifetime.start.p0(i64 8, ptr %8) #5
  %17 = load double, ptr %6, align 8, !tbaa !9
  %18 = call double @cos(double noundef %17) #5, !tbaa !11
  %19 = load double, ptr %6, align 8, !tbaa !9
  %20 = call double @cos(double noundef %19) #5, !tbaa !11
  %21 = fmul double %18, %20
  store double %21, ptr %8, align 8, !tbaa !9
  call void @llvm.lifetime.start.p0(i64 8, ptr %9) #5
  %22 = load double, ptr %6, align 8, !tbaa !9
  %23 = call double @cos(double noundef %22) #5, !tbaa !11
  %24 = load double, ptr %6, align 8, !tbaa !9
  %25 = call double @cos(double noundef %24) #5, !tbaa !11
  %26 = call double @llvm.fmuladd.f64(double %23, double %25, double 1.000000e+00)
  %27 = load ptr, ptr %4, align 8, !tbaa !4
  %28 = getelementptr inbounds double, ptr %27, i64 8
  %29 = load double, ptr %28, align 8, !tbaa !9
  %30 = load ptr, ptr %4, align 8, !tbaa !4
  %31 = getelementptr inbounds double, ptr %30, i64 8
  %32 = load double, ptr %31, align 8, !tbaa !9
  %33 = call double @llvm.fmuladd.f64(double %29, double %32, double 1.000000e+00)
  %34 = load ptr, ptr %4, align 8, !tbaa !4
  %35 = getelementptr inbounds double, ptr %34, i64 8
  %36 = load double, ptr %35, align 8, !tbaa !9
  %37 = fmul double 2.000000e+00, %36
  %38 = load double, ptr %6, align 8, !tbaa !9
  %39 = call double @cos(double noundef %38) #5, !tbaa !11
  %40 = fneg double %37
  %41 = call double @llvm.fmuladd.f64(double %40, double %39, double %33)
  %42 = call double @pow(double noundef %41, double noundef 1.500000e+00) #5, !tbaa !11
  %43 = fdiv double %26, %42
  store double %43, ptr %9, align 8, !tbaa !9
  call void @llvm.lifetime.start.p0(i64 8, ptr %10) #5
  %44 = load double, ptr %5, align 8, !tbaa !9
  %45 = call double @cos(double noundef %44) #5, !tbaa !11
  %46 = call double @sqrt(double noundef %45) #5, !tbaa !11
  store double %46, ptr %10, align 8, !tbaa !9
  %47 = load ptr, ptr %4, align 8, !tbaa !4
  %48 = getelementptr inbounds double, ptr %47, i64 0
  %49 = load double, ptr %48, align 8, !tbaa !9
  %50 = load ptr, ptr %4, align 8, !tbaa !4
  %51 = getelementptr inbounds double, ptr %50, i64 1
  %52 = load double, ptr %51, align 8, !tbaa !9
  %53 = load double, ptr %5, align 8, !tbaa !9
  %54 = call double @cos(double noundef %53) #5, !tbaa !11
  %55 = fadd double %54, 1.000000e-02
  %56 = fdiv double %52, %55
  %57 = call double @exp(double noundef %56) #5, !tbaa !11
  %58 = call double @llvm.fmuladd.f64(double %49, double %57, double 1.000000e+00)
  %59 = load ptr, ptr %4, align 8, !tbaa !4
  %60 = getelementptr inbounds double, ptr %59, i64 2
  %61 = load double, ptr %60, align 8, !tbaa !9
  %62 = load ptr, ptr %4, align 8, !tbaa !4
  %63 = getelementptr inbounds double, ptr %62, i64 3
  %64 = load double, ptr %63, align 8, !tbaa !9
  %65 = load double, ptr %7, align 8, !tbaa !9
  %66 = call double @llvm.fmuladd.f64(double %64, double %65, double %61)
  %67 = load ptr, ptr %4, align 8, !tbaa !4
  %68 = getelementptr inbounds double, ptr %67, i64 5
  %69 = load double, ptr %68, align 8, !tbaa !9
  %70 = load double, ptr %8, align 8, !tbaa !9
  %71 = call double @llvm.fmuladd.f64(double %69, double %70, double %66)
  %72 = load ptr, ptr %4, align 8, !tbaa !4
  %73 = getelementptr inbounds double, ptr %72, i64 6
  %74 = load double, ptr %73, align 8, !tbaa !9
  %75 = load double, ptr %9, align 8, !tbaa !9
  %76 = call double @llvm.fmuladd.f64(double %74, double %75, double %71)
  %77 = load ptr, ptr %4, align 8, !tbaa !4
  %78 = getelementptr inbounds double, ptr %77, i64 7
  %79 = load double, ptr %78, align 8, !tbaa !9
  %80 = load double, ptr %10, align 8, !tbaa !9
  %81 = call double @llvm.fmuladd.f64(double %79, double %80, double %76)
  %82 = fmul double %58, %81
  call void @llvm.lifetime.end.p0(i64 8, ptr %10) #5
  call void @llvm.lifetime.end.p0(i64 8, ptr %9) #5
  call void @llvm.lifetime.end.p0(i64 8, ptr %8) #5
  call void @llvm.lifetime.end.p0(i64 8, ptr %7) #5
  ret double %82
}

; Function Attrs: nounwind uwtable
define dso_local double @arhosekskymodel_radiance(ptr noundef %0, double noundef %1, double noundef %2, double noundef %3) #0 {
  %5 = alloca double, align 8
  %6 = alloca ptr, align 8
  %7 = alloca double, align 8
  %8 = alloca double, align 8
  %9 = alloca double, align 8
  %10 = alloca i32, align 4
  %11 = alloca i32, align 4
  %12 = alloca double, align 8
  %13 = alloca double, align 8
  %14 = alloca double, align 8
  store ptr %0, ptr %6, align 8, !tbaa !18
  store double %1, ptr %7, align 8, !tbaa !9
  store double %2, ptr %8, align 8, !tbaa !9
  store double %3, ptr %9, align 8, !tbaa !9
  call void @llvm.lifetime.start.p0(i64 4, ptr %10) #5
  %15 = load double, ptr %9, align 8, !tbaa !9
  %16 = fsub double %15, 3.200000e+02
  %17 = fdiv double %16, 4.000000e+01
  %18 = fptosi double %17 to i32
  store i32 %18, ptr %10, align 4, !tbaa !11
  %19 = load i32, ptr %10, align 4, !tbaa !11
  %20 = icmp slt i32 %19, 0
  br i1 %20, label %24, label %21

21:                                               ; preds = %4
  %22 = load i32, ptr %10, align 4, !tbaa !11
  %23 = icmp sge i32 %22, 11
  br i1 %23, label %24, label %25

24:                                               ; preds = %21, %4
  store double 0.000000e+00, ptr %5, align 8
  store i32 1, ptr %11, align 4
  br label %98

25:                                               ; preds = %21
  call void @llvm.lifetime.start.p0(i64 8, ptr %12) #5
  %26 = load double, ptr %9, align 8, !tbaa !9
  %27 = fsub double %26, 3.200000e+02
  %28 = fdiv double %27, 4.000000e+01
  %29 = call double @fmod(double noundef %28, double noundef 1.000000e+00) #5, !tbaa !11
  store double %29, ptr %12, align 8, !tbaa !9
  call void @llvm.lifetime.start.p0(i64 8, ptr %13) #5
  %30 = load ptr, ptr %6, align 8, !tbaa !18
  %31 = getelementptr inbounds nuw %struct.ArHosekSkyModelState, ptr %30, i32 0, i32 0
  %32 = load i32, ptr %10, align 4, !tbaa !11
  %33 = sext i32 %32 to i64
  %34 = getelementptr inbounds [11 x [9 x double]], ptr %31, i64 0, i64 %33
  %35 = getelementptr inbounds [9 x double], ptr %34, i64 0, i64 0
  %36 = load double, ptr %7, align 8, !tbaa !9
  %37 = load double, ptr %8, align 8, !tbaa !9
  %38 = call double @ArHosekSkyModel_GetRadianceInternal(ptr noundef %35, double noundef %36, double noundef %37)
  %39 = load ptr, ptr %6, align 8, !tbaa !18
  %40 = getelementptr inbounds nuw %struct.ArHosekSkyModelState, ptr %39, i32 0, i32 1
  %41 = load i32, ptr %10, align 4, !tbaa !11
  %42 = sext i32 %41 to i64
  %43 = getelementptr inbounds [11 x double], ptr %40, i64 0, i64 %42
  %44 = load double, ptr %43, align 8, !tbaa !9
  %45 = fmul double %38, %44
  %46 = load ptr, ptr %6, align 8, !tbaa !18
  %47 = getelementptr inbounds nuw %struct.ArHosekSkyModelState, ptr %46, i32 0, i32 4
  %48 = load i32, ptr %10, align 4, !tbaa !11
  %49 = sext i32 %48 to i64
  %50 = getelementptr inbounds [11 x double], ptr %47, i64 0, i64 %49
  %51 = load double, ptr %50, align 8, !tbaa !9
  %52 = fmul double %45, %51
  store double %52, ptr %13, align 8, !tbaa !9
  %53 = load double, ptr %12, align 8, !tbaa !9
  %54 = fcmp olt double %53, 0x3EB0C6F7A0B5ED8D
  br i1 %54, label %55, label %57

55:                                               ; preds = %25
  %56 = load double, ptr %13, align 8, !tbaa !9
  store double %56, ptr %5, align 8
  store i32 1, ptr %11, align 4
  br label %97

57:                                               ; preds = %25
  call void @llvm.lifetime.start.p0(i64 8, ptr %14) #5
  %58 = load double, ptr %12, align 8, !tbaa !9
  %59 = fsub double 1.000000e+00, %58
  %60 = load double, ptr %13, align 8, !tbaa !9
  %61 = fmul double %59, %60
  store double %61, ptr %14, align 8, !tbaa !9
  %62 = load i32, ptr %10, align 4, !tbaa !11
  %63 = add nsw i32 %62, 1
  %64 = icmp slt i32 %63, 11
  br i1 %64, label %65, label %95

65:                                               ; preds = %57
  %66 = load double, ptr %12, align 8, !tbaa !9
  %67 = load ptr, ptr %6, align 8, !tbaa !18
  %68 = getelementptr inbounds nuw %struct.ArHosekSkyModelState, ptr %67, i32 0, i32 0
  %69 = load i32, ptr %10, align 4, !tbaa !11
  %70 = add nsw i32 %69, 1
  %71 = sext i32 %70 to i64
  %72 = getelementptr inbounds [11 x [9 x double]], ptr %68, i64 0, i64 %71
  %73 = getelementptr inbounds [9 x double], ptr %72, i64 0, i64 0
  %74 = load double, ptr %7, align 8, !tbaa !9
  %75 = load double, ptr %8, align 8, !tbaa !9
  %76 = call double @ArHosekSkyModel_GetRadianceInternal(ptr noundef %73, double noundef %74, double noundef %75)
  %77 = fmul double %66, %76
  %78 = load ptr, ptr %6, align 8, !tbaa !18
  %79 = getelementptr inbounds nuw %struct.ArHosekSkyModelState, ptr %78, i32 0, i32 1
  %80 = load i32, ptr %10, align 4, !tbaa !11
  %81 = add nsw i32 %80, 1
  %82 = sext i32 %81 to i64
  %83 = getelementptr inbounds [11 x double], ptr %79, i64 0, i64 %82
  %84 = load double, ptr %83, align 8, !tbaa !9
  %85 = fmul double %77, %84
  %86 = load ptr, ptr %6, align 8, !tbaa !18
  %87 = getelementptr inbounds nuw %struct.ArHosekSkyModelState, ptr %86, i32 0, i32 4
  %88 = load i32, ptr %10, align 4, !tbaa !11
  %89 = add nsw i32 %88, 1
  %90 = sext i32 %89 to i64
  %91 = getelementptr inbounds [11 x double], ptr %87, i64 0, i64 %90
  %92 = load double, ptr %91, align 8, !tbaa !9
  %93 = load double, ptr %14, align 8, !tbaa !9
  %94 = call double @llvm.fmuladd.f64(double %85, double %92, double %93)
  store double %94, ptr %14, align 8, !tbaa !9
  br label %95

95:                                               ; preds = %65, %57
  %96 = load double, ptr %14, align 8, !tbaa !9
  store double %96, ptr %5, align 8
  store i32 1, ptr %11, align 4
  call void @llvm.lifetime.end.p0(i64 8, ptr %14) #5
  br label %97

97:                                               ; preds = %95, %55
  call void @llvm.lifetime.end.p0(i64 8, ptr %13) #5
  call void @llvm.lifetime.end.p0(i64 8, ptr %12) #5
  br label %98

98:                                               ; preds = %97, %24
  call void @llvm.lifetime.end.p0(i64 4, ptr %10) #5
  %99 = load double, ptr %5, align 8
  ret double %99
}