; Function Attrs: mustprogress nofree nounwind willreturn memory(write, argmem: readwrite) uwtable
define dso_local double @arhosekskymodel_radiance(ptr noundef readonly captures(none) %0, double noundef %1, double noundef %2, double noundef %3) local_unnamed_addr #4 {
  %5 = fadd double %3, -3.200000e+02
  %6 = fdiv double %5, 4.000000e+01
  %7 = fptosi double %6 to i32
  %or.cond = icmp ugt i32 %7, 10
  br i1 %or.cond, label %121, label %8

8:                                                ; preds = %4
  %9 = tail call double @fmod(double noundef %6, double noundef 1.000000e+00) #12, !tbaa !4
  %10 = zext nneg i32 %7 to i64
  %11 = getelementptr inbounds nuw [11 x [9 x double]], ptr %0, i64 0, i64 %10
  %12 = getelementptr inbounds nuw i8, ptr %11, i64 32
  %13 = load double, ptr %12, align 8, !tbaa !8
  %14 = fmul double %2, %13
  %15 = tail call double @exp(double noundef %14) #12, !tbaa !4
  %16 = tail call double @cos(double noundef %2) #12, !tbaa !4
  %17 = tail call double @cos(double noundef %2) #12, !tbaa !4
  %18 = fmul double %16, %17
  %19 = tail call double @cos(double noundef %2) #12, !tbaa !4
  %20 = tail call double @cos(double noundef %2) #12, !tbaa !4
  %21 = tail call double @llvm.fmuladd.f64(double %19, double %20, double 1.000000e+00)
  %22 = getelementptr inbounds nuw i8, ptr %11, i64 64
  %23 = load double, ptr %22, align 8, !tbaa !8
  %24 = tail call double @llvm.fmuladd.f64(double %23, double %23, double 1.000000e+00)
  %25 = tail call double @cos(double noundef %2) #12, !tbaa !4
  %26 = fmul double %23, -2.000000e+00
  %27 = tail call double @llvm.fmuladd.f64(double %26, double %25, double %24)
  %28 = tail call double @pow(double noundef %27, double noundef 1.500000e+00) #12, !tbaa !4
  %29 = fdiv double %21, %28
  %30 = tail call double @cos(double noundef %1) #12, !tbaa !4
  %31 = tail call double @sqrt(double noundef %30) #12, !tbaa !4
  %32 = load double, ptr %11, align 8, !tbaa !8
  %33 = getelementptr inbounds nuw i8, ptr %11, i64 8
  %34 = load double, ptr %33, align 8, !tbaa !8
  %35 = tail call double @cos(double noundef %1) #12, !tbaa !4
  %36 = fadd double %35, 1.000000e-02
  %37 = fdiv double %34, %36
  %38 = tail call double @exp(double noundef %37) #12, !tbaa !4
  %39 = tail call double @llvm.fmuladd.f64(double %32, double %38, double 1.000000e+00)
  %40 = getelementptr inbounds nuw i8, ptr %11, i64 16
  %41 = load double, ptr %40, align 8, !tbaa !8
  %42 = getelementptr inbounds nuw i8, ptr %11, i64 24
  %43 = load double, ptr %42, align 8, !tbaa !8
  %44 = tail call double @llvm.fmuladd.f64(double %43, double %15, double %41)
  %45 = getelementptr inbounds nuw i8, ptr %11, i64 40
  %46 = load double, ptr %45, align 8, !tbaa !8
  %47 = tail call double @llvm.fmuladd.f64(double %46, double %18, double %44)
  %48 = getelementptr inbounds nuw i8, ptr %11, i64 48
  %49 = load double, ptr %48, align 8, !tbaa !8
  %50 = tail call double @llvm.fmuladd.f64(double %49, double %29, double %47)
  %51 = getelementptr inbounds nuw i8, ptr %11, i64 56
  %52 = load double, ptr %51, align 8, !tbaa !8
  %53 = tail call double @llvm.fmuladd.f64(double %52, double %31, double %50)
  %54 = fmul double %39, %53
  %55 = getelementptr inbounds nuw i8, ptr %0, i64 792
  %56 = getelementptr inbounds nuw [11 x double], ptr %55, i64 0, i64 %10
  %57 = load double, ptr %56, align 8, !tbaa !8
  %58 = fmul double %57, %54
  %59 = getelementptr inbounds nuw i8, ptr %0, i64 896
  %60 = getelementptr inbounds nuw [11 x double], ptr %59, i64 0, i64 %10
  %61 = load double, ptr %60, align 8, !tbaa !8
  %62 = fmul double %61, %58
  %63 = fcmp olt double %9, 0x3EB0C6F7A0B5ED8D
  br i1 %63, label %121, label %64

64:                                               ; preds = %8
  %65 = fsub double 1.000000e+00, %9
  %66 = fmul double %65, %62
  %.not = icmp eq i32 %7, 10
  br i1 %.not, label %121, label %67

67:                                               ; preds = %64
  %68 = add nuw nsw i32 %7, 1
  %69 = zext nneg i32 %68 to i64
  %70 = getelementptr inbounds nuw [11 x [9 x double]], ptr %0, i64 0, i64 %69
  %71 = getelementptr inbounds nuw i8, ptr %70, i64 32
  %72 = load double, ptr %71, align 8, !tbaa !8
  %73 = fmul double %2, %72
  %74 = tail call double @exp(double noundef %73) #12, !tbaa !4
  %75 = tail call double @cos(double noundef %2) #12, !tbaa !4
  %76 = tail call double @cos(double noundef %2) #12, !tbaa !4
  %77 = fmul double %75, %76
  %78 = tail call double @cos(double noundef %2) #12, !tbaa !4
  %79 = tail call double @cos(double noundef %2) #12, !tbaa !4
  %80 = tail call double @llvm.fmuladd.f64(double %78, double %79, double 1.000000e+00)
  %81 = getelementptr inbounds nuw i8, ptr %70, i64 64
  %82 = load double, ptr %81, align 8, !tbaa !8
  %83 = tail call double @llvm.fmuladd.f64(double %82, double %82, double 1.000000e+00)
  %84 = tail call double @cos(double noundef %2) #12, !tbaa !4
  %85 = fmul double %82, -2.000000e+00
  %86 = tail call double @llvm.fmuladd.f64(double %85, double %84, double %83)
  %87 = tail call double @pow(double noundef %86, double noundef 1.500000e+00) #12, !tbaa !4
  %88 = fdiv double %80, %87
  %89 = tail call double @cos(double noundef %1) #12, !tbaa !4
  %90 = tail call double @sqrt(double noundef %89) #12, !tbaa !4
  %91 = load double, ptr %70, align 8, !tbaa !8
  %92 = getelementptr inbounds nuw i8, ptr %70, i64 8
  %93 = load double, ptr %92, align 8, !tbaa !8
  %94 = tail call double @cos(double noundef %1) #12, !tbaa !4
  %95 = fadd double %94, 1.000000e-02
  %96 = fdiv double %93, %95
  %97 = tail call double @exp(double noundef %96) #12, !tbaa !4
  %98 = tail call double @llvm.fmuladd.f64(double %91, double %97, double 1.000000e+00)
  %99 = getelementptr inbounds nuw i8, ptr %70, i64 16
  %100 = load double, ptr %99, align 8, !tbaa !8
  %101 = getelementptr inbounds nuw i8, ptr %70, i64 24
  %102 = load double, ptr %101, align 8, !tbaa !8
  %103 = tail call double @llvm.fmuladd.f64(double %102, double %74, double %100)
  %104 = getelementptr inbounds nuw i8, ptr %70, i64 40
  %105 = load double, ptr %104, align 8, !tbaa !8
  %106 = tail call double @llvm.fmuladd.f64(double %105, double %77, double %103)
  %107 = getelementptr inbounds nuw i8, ptr %70, i64 48
  %108 = load double, ptr %107, align 8, !tbaa !8
  %109 = tail call double @llvm.fmuladd.f64(double %108, double %88, double %106)
  %110 = getelementptr inbounds nuw i8, ptr %70, i64 56
  %111 = load double, ptr %110, align 8, !tbaa !8
  %112 = tail call double @llvm.fmuladd.f64(double %111, double %90, double %109)
  %113 = fmul double %98, %112
  %114 = fmul double %9, %113
  %115 = getelementptr inbounds nuw [11 x double], ptr %55, i64 0, i64 %69
  %116 = load double, ptr %115, align 8, !tbaa !8
  %117 = fmul double %116, %114
  %118 = getelementptr inbounds nuw [11 x double], ptr %59, i64 0, i64 %69
  %119 = load double, ptr %118, align 8, !tbaa !8
  %120 = tail call double @llvm.fmuladd.f64(double %117, double %119, double %66)
  br label %121

121:                                              ; preds = %8, %67, %64, %4
  %.029 = phi double [ 0.000000e+00, %4 ], [ %62, %8 ], [ %120, %67 ], [ %66, %64 ]
  ret double %.029
}